target datalayout = "e-m:e-p270:32:32-p271:32:32-p272:64:64-i64:64-i128:128-f80:128-n8:16:32:64-S128"
target triple = "x86_64-pc-linux-gnu"

@.str = private unnamed_addr constant [58 x i8] c"../openssl/providers/implementations/ciphers/cipher_des.c\00", align 1

; Function Attrs: nounwind uwtable
define internal ptr @des_newctx(ptr noundef %0, i64 noundef %1, i64 noundef %2, i64 noundef %3, i32 noundef %4, i64 noundef %5, ptr noundef %6) #0 {
  %8 = alloca ptr, align 8
  %9 = alloca ptr, align 8
  %10 = alloca i64, align 8
  %11 = alloca i64, align 8
  %12 = alloca i64, align 8
  %13 = alloca i32, align 4
  %14 = alloca i64, align 8
  %15 = alloca ptr, align 8
  %16 = alloca ptr, align 8
  %17 = alloca i32, align 4
  store ptr %0, ptr %9, align 8, !tbaa !3
  store i64 %1, ptr %10, align 8, !tbaa !9
  store i64 %2, ptr %11, align 8, !tbaa !9
  store i64 %3, ptr %12, align 8, !tbaa !9
  store i32 %4, ptr %13, align 4, !tbaa !27
  store i64 %5, ptr %14, align 8, !tbaa !9
  store ptr %6, ptr %15, align 8, !tbaa !34
  call void @llvm.lifetime.start.p0(i64 8, ptr %16) #4
  %18 = call i32 @ossl_prov_is_running()
  %19 = icmp ne i32 %18, 0
  br i1 %19, label %21, label %20

20:                                               ; preds = %7
  store ptr null, ptr %8, align 8
  store i32 1, ptr %17, align 4
  br label %36

21:                                               ; preds = %7
  %22 = call noalias ptr @CRYPTO_zalloc(i64 noundef 328, ptr noundef @.str, i32 noundef 40)
  store ptr %22, ptr %16, align 8, !tbaa !13
  %23 = load ptr, ptr %16, align 8, !tbaa !13
  %24 = icmp ne ptr %23, null
  br i1 %24, label %25, label %34

25:                                               ; preds = %21
  %26 = load ptr, ptr %16, align 8, !tbaa !13
  %27 = load i64, ptr %10, align 8, !tbaa !9
  %28 = load i64, ptr %11, align 8, !tbaa !9
  %29 = load i64, ptr %12, align 8, !tbaa !9
  %30 = load i32, ptr %13, align 4, !tbaa !27
  %31 = load i64, ptr %14, align 8, !tbaa !9
  %32 = load ptr, ptr %15, align 8, !tbaa !34
  %33 = load ptr, ptr %9, align 8, !tbaa !3
  call void @ossl_cipher_generic_initkey(ptr noundef %26, i64 noundef %27, i64 noundef %28, i64 noundef %29, i32 noundef %30, i64 noundef %31, ptr noundef %32, ptr noundef %33)
  br label %34

34:                                               ; preds = %25, %21
  %35 = load ptr, ptr %16, align 8, !tbaa !13
  store ptr %35, ptr %8, align 8
  store i32 1, ptr %17, align 4
  br label %36

36:                                               ; preds = %34, %20
  call void @llvm.lifetime.end.p0(i64 8, ptr %16) #4
  %37 = load ptr, ptr %8, align 8
  ret ptr %37
}

; Function Attrs: nounwind uwtable
define internal ptr @des_cbc_newctx(ptr noundef %0) #0 {
  %2 = alloca ptr, align 8
  store ptr %0, ptr %2, align 8, !tbaa !3
  %3 = load ptr, ptr %2, align 8, !tbaa !3
  %4 = call ptr @ossl_prov_cipher_hw_des_cbc()
  %5 = call ptr @des_newctx(ptr noundef %3, i64 noundef 64, i64 noundef 64, i64 noundef 64, i32 noundef 2, i64 noundef 16, ptr noundef %4)
  ret ptr %5
}